#include <math.h>
#include <stdio.h>
#include <stdlib.h>
#include <string.h>

int main()
{
    int n,sz[100],sum=0;
    scanf("%d",&n);
    for(int i=0;i<=n;i++){
    if(i%10!=7&&i%7!=0&&(i<70||i>79))
    sum=sum+i*i;
    }
    printf("%d",sum);
    return 0;
}